; ModuleID = 'probe6.cb603a69-cgu.0'
source_filename = "probe6.cb603a69-cgu.0"
target datalayout = "e-m:e-p:32:32-i64:64-n32-S128"
target triple = "riscv32"

; core::f64::<impl f64>::is_subnormal
; Function Attrs: inlinehint nounwind
define internal zeroext i1 @"_ZN4core3f6421_$LT$impl$u20$f64$GT$12is_subnormal17h86b175243c970fe2E"(double %self) unnamed_addr #0 {
start:
  %_2 = alloca i8, align 1
  %0 = alloca i8, align 1
; call core::f64::<impl f64>::classify
  %1 = call i8 @"_ZN4core3f6421_$LT$impl$u20$f64$GT$8classify17h1b9fc37624205f27E"(double %self) #2, !range !0
  store i8 %1, ptr %_2, align 1
  %2 = load i8, ptr %_2, align 1, !range !0, !noundef !1
  %_3 = zext i8 %2 to i32
  %3 = icmp eq i32 %_3, 3
  br i1 %3, label %bb3, label %bb2

bb3:                                              ; preds = %start
  store i8 1, ptr %0, align 1
  br label %bb4

bb2:                                              ; preds = %start
  store i8 0, ptr %0, align 1
  br label %bb4

bb4:                                              ; preds = %bb3, %bb2
  %4 = load i8, ptr %0, align 1, !range !2, !noundef !1
  %5 = trunc i8 %4 to i1
  ret i1 %5
}

; probe6::probe
; Function Attrs: nounwind
define dso_local void @_ZN6probe65probe17h175e7ecd4199ae9cE() unnamed_addr #1 {
start:
; call core::f64::<impl f64>::is_subnormal
  %_1 = call zeroext i1 @"_ZN4core3f6421_$LT$impl$u20$f64$GT$12is_subnormal17h86b175243c970fe2E"(double 1.000000e+00) #2
  ret void
}

; core::f64::<impl f64>::classify
; Function Attrs: nounwind
declare dso_local i8 @"_ZN4core3f6421_$LT$impl$u20$f64$GT$8classify17h1b9fc37624205f27E"(double) unnamed_addr #1

attributes #0 = { inlinehint nounwind "target-cpu"="generic-rv32" "target-features"="+m" }
attributes #1 = { nounwind "target-cpu"="generic-rv32" "target-features"="+m" }
attributes #2 = { nounwind }

!0 = !{i8 0, i8 5}
!1 = !{}
!2 = !{i8 0, i8 2}
